; Function Attrs: mustprogress uwtable
define void @_ZN6google8protobuf6Struct9MergeImplERNS0_11MessageLiteERKS2_(ptr noundef nonnull align 8 dereferenceable(16) %to_msg, ptr noundef nonnull align 8 dereferenceable(16) %from_msg) #3 align 2 {
entry:
  %0 = getelementptr inbounds i8, ptr %to_msg, i64 16
  %1 = getelementptr inbounds i8, ptr %from_msg, i64 16
  %2 = load ptr, ptr %0, align 8
  %merge_from.i = getelementptr inbounds i8, ptr %2, i64 48
  %3 = load ptr, ptr %merge_from.i, align 8
  tail call void %3(ptr noundef nonnull align 8 dereferenceable(16) %0, ptr noundef nonnull align 8 dereferenceable(16) %1)
  %_internal_metadata_2 = getelementptr inbounds i8, ptr %from_msg, i64 8
  %4 = load i64, ptr %_internal_metadata_2, align 8
  %and.i14 = and i64 %4, 1
  %tobool.i15.not = icmp eq i64 %and.i14, 0
  br i1 %tobool.i15.not, label %_ZN6google8protobuf8internal16InternalMetadata9MergeFromINS0_15UnknownFieldSetEEEvRKS2_.exit, label %if.then.i8

if.then.i8:                                       ; preds = %entry
  %_internal_metadata_ = getelementptr inbounds i8, ptr %to_msg, i64 8
  %and.i = and i64 %4, -2
  %5 = inttoptr i64 %and.i to ptr
  %unknown_fields.i = getelementptr inbounds i8, ptr %5, i64 8
  tail call void @_ZN6google8protobuf8internal16InternalMetadata11DoMergeFromINS0_15UnknownFieldSetEEEvRKT_(ptr noundef nonnull align 8 dereferenceable(8) %_internal_metadata_, ptr noundef nonnull align 8 dereferenceable(24) %unknown_fields.i)
  br label %_ZN6google8protobuf8internal16InternalMetadata9MergeFromINS0_15UnknownFieldSetEEEvRKS2_.exit

_ZN6google8protobuf8internal16InternalMetadata9MergeFromINS0_15UnknownFieldSetEEEvRKS2_.exit: ; preds = %if.then.i8, %entry
  ret void
}